(dp0
F4096.0
F0.0013699531555175781
sF1024.0
F0.0006451606750488281
sF2.0
F0.00015115737915039062
sF4.0
F5.984306335449219e-05
sF8192.0
F0.0022821426391601562
sF8.0
F7.104873657226562e-05
sF128.0
F0.0003490447998046875
sF134217728.0
F51.800999879837036
sF256.0
F0.00040078163146972656
sF16.0
F0.00011110305786132812
sF8388608.0
F3.8560409545898438
sF512.0
F0.0005109310150146484
sF4194304.0
F1.9143929481506348
sF16777216.0
F6.905622959136963
sF524288.0
F0.19360804557800293
sF32.0
F0.00025010108947753906
sF131072.0
F0.04881596565246582
sF262144.0
F0.1033940315246582
sF33554432.0
F12.35813593864441
sF16384.0
F0.004896879196166992
sF1048576.0
F0.4119119644165039
sF32768.0
F0.009351015090942383
sF64.0
F0.0003268718719482422
sF2048.0
F0.0009028911590576172
sF67108864.0
F25.341145038604736
sF2097152.0
F0.9682900905609131
sF65536.0
F0.021497011184692383
s.